; Function Attrs: nounwind sspstrong uwtable
define internal fastcc noundef ptr @rb_node_fcall_new(ptr noundef captures(none) %0, i64 noundef %1, ptr noundef %2, ptr noundef readonly captures(none) %3) unnamed_addr #0 {
  %5 = getelementptr i8, ptr %0, i64 288
  %.val.i = load ptr, ptr %5, align 8, !tbaa !130
  %6 = tail call ptr @rb_ast_newnode(ptr noundef %.val.i, i32 noundef range(i32 0, 115) 38, i64 noundef range(i64 32, 129) 48, i64 noundef 8) #35
  tail call void @rb_node_init(ptr noundef %6, i32 noundef range(i32 0, 115) 38) #35
  %7 = getelementptr inbounds nuw i8, ptr %6, i64 8
  tail call void @llvm.memcpy.p0.p0.i64(ptr noundef nonnull align 8 dereferenceable(16) %7, ptr noundef nonnull readonly align 4 dereferenceable(16) %3, i64 16, i1 false), !tbaa.struct !59
  %8 = load i32, ptr %3, align 4, !tbaa !53
  %9 = sext i32 %8 to i64
  %10 = load i64, ptr %6, align 8, !tbaa !72
  %11 = and i64 %10, 32767
  %12 = shl nsw i64 %9, 15
  %13 = or disjoint i64 %11, %12
  store i64 %13, ptr %6, align 8, !tbaa !72
  %14 = getelementptr inbounds nuw i8, ptr %0, i64 296
  %15 = load i32, ptr %14, align 8, !tbaa !207
  %16 = add i32 %15, 1
  store i32 %16, ptr %14, align 8, !tbaa !207
  %17 = getelementptr inbounds nuw i8, ptr %6, i64 24
  store i32 %15, ptr %17, align 8, !tbaa !208
  %18 = getelementptr inbounds nuw i8, ptr %6, i64 32
  store i64 %1, ptr %18, align 8, !tbaa !319
  %19 = getelementptr inbounds nuw i8, ptr %6, i64 40
  store ptr %2, ptr %19, align 8, !tbaa !113
  ret ptr %6
}